TN:
SF:/home/mtk02470/repos/source/mut_test/example.c
FN:14,_Z14switch_examplei
FN:32,_Z18while_loop_examplei
FNDA:10,_Z14switch_examplei
FNDA:7,_Z18while_loop_examplei
FNF:2
FNH:2
DA:14,10
DA:16,10
DA:17,2
DA:18,2
DA:19,2
DA:20,2
DA:21,2
DA:22,2
DA:23,2
DA:24,2
DA:25,2
DA:26,4
DA:27,4
DA:29,10
DA:32,7
DA:33,7
DA:34,7
DA:35,29
DA:36,22
DA:37,22
DA:39,7
LF:21
LH:21
end_of_record
TN:
SF:/home/mtk02470/repos/source/mut_test/example_test_gpt35.cpp
FN:41,_ZN29SwitchExampleTest_Value1_Test8TestBodyEv
FN:41,_ZN29SwitchExampleTest_Value1_TestD0Ev
FN:41,_ZN29SwitchExampleTest_Value1_TestC2Ev
FN:41,_ZN29SwitchExampleTest_Value1_TestD2Ev
FN:47,_ZN29SwitchExampleTest_Value2_TestC2Ev
FN:47,_ZN29SwitchExampleTest_Value2_Test8TestBodyEv
FN:47,_ZN29SwitchExampleTest_Value2_TestD2Ev
FN:47,_ZN29SwitchExampleTest_Value2_TestD0Ev
FN:53,_ZN29SwitchExampleTest_Value3_Test8TestBodyEv
FN:53,_ZN29SwitchExampleTest_Value3_TestD0Ev
FN:53,_ZN29SwitchExampleTest_Value3_TestD2Ev
FN:53,_ZN29SwitchExampleTest_Value3_TestC2Ev
FN:59,_ZN35SwitchExampleTest_DefaultValue_TestC2Ev
FN:59,_ZN35SwitchExampleTest_DefaultValue_TestD0Ev
FN:59,_ZN35SwitchExampleTest_DefaultValue_Test8TestBodyEv
FN:59,_ZN35SwitchExampleTest_DefaultValue_TestD2Ev
FN:66,_ZN32WhileLoopExampleTest_Count0_Test8TestBodyEv
FN:66,_ZN32WhileLoopExampleTest_Count0_TestD0Ev
FN:66,_ZN32WhileLoopExampleTest_Count0_TestD2Ev
FN:66,_ZN32WhileLoopExampleTest_Count0_TestC2Ev
FN:72,_ZN32WhileLoopExampleTest_Count1_TestD0Ev
FN:72,_ZN32WhileLoopExampleTest_Count1_TestC2Ev
FN:72,_ZN32WhileLoopExampleTest_Count1_Test8TestBodyEv
FN:72,_ZN32WhileLoopExampleTest_Count1_TestD2Ev
FN:78,_ZN32WhileLoopExampleTest_Count5_TestC2Ev
FN:78,_ZN32WhileLoopExampleTest_Count5_TestD2Ev
FN:78,_ZN32WhileLoopExampleTest_Count5_TestD0Ev
FN:78,_ZN32WhileLoopExampleTest_Count5_Test8TestBodyEv
FN:85,main
FNDA:1,_ZN32WhileLoopExampleTest_Count5_TestC2Ev
FNDA:1,_ZN35SwitchExampleTest_DefaultValue_TestD0Ev
FNDA:1,_ZN35SwitchExampleTest_DefaultValue_TestC2Ev
FNDA:1,_ZN32WhileLoopExampleTest_Count5_TestD2Ev
FNDA:1,_ZN29SwitchExampleTest_Value3_TestD2Ev
FNDA:1,_ZN35SwitchExampleTest_DefaultValue_Test8TestBodyEv
FNDA:1,_ZN29SwitchExampleTest_Value3_TestD0Ev
FNDA:1,_ZN29SwitchExampleTest_Value2_Test8TestBodyEv
FNDA:1,_ZN32WhileLoopExampleTest_Count1_TestC2Ev
FNDA:1,_ZN29SwitchExampleTest_Value2_TestD2Ev
FNDA:1,_ZN29SwitchExampleTest_Value2_TestC2Ev
FNDA:1,main
FNDA:1,_ZN32WhileLoopExampleTest_Count0_Test8TestBodyEv
FNDA:1,_ZN29SwitchExampleTest_Value3_Test8TestBodyEv
FNDA:1,_ZN29SwitchExampleTest_Value1_TestD0Ev
FNDA:1,_ZN29SwitchExampleTest_Value1_Test8TestBodyEv
FNDA:1,_ZN32WhileLoopExampleTest_Count1_TestD0Ev
FNDA:1,_ZN32WhileLoopExampleTest_Count1_TestD2Ev
FNDA:1,_ZN29SwitchExampleTest_Value3_TestC2Ev
FNDA:1,_ZN29SwitchExampleTest_Value1_TestD2Ev
FNDA:1,_ZN32WhileLoopExampleTest_Count5_Test8TestBodyEv
FNDA:1,_ZN32WhileLoopExampleTest_Count5_TestD0Ev
FNDA:1,_ZN35SwitchExampleTest_DefaultValue_TestD2Ev
FNDA:1,_ZN29SwitchExampleTest_Value2_TestD0Ev
FNDA:1,_ZN32WhileLoopExampleTest_Count0_TestD2Ev
FNDA:1,_ZN32WhileLoopExampleTest_Count0_TestD0Ev
FNDA:1,_ZN32WhileLoopExampleTest_Count1_Test8TestBodyEv
FNDA:1,_ZN29SwitchExampleTest_Value1_TestC2Ev
FNDA:1,_ZN32WhileLoopExampleTest_Count0_TestC2Ev
FNF:29
FNH:29
DA:41,4
DA:43,1
DA:44,1
DA:45,1
DA:47,4
DA:49,1
DA:50,1
DA:51,1
DA:53,4
DA:55,1
DA:56,1
DA:57,1
DA:59,4
DA:61,1
DA:62,1
DA:63,1
DA:66,4
DA:68,1
DA:69,1
DA:70,1
DA:72,4
DA:74,1
DA:75,1
DA:76,1
DA:78,4
DA:80,1
DA:81,1
DA:82,1
DA:85,1
DA:86,1
DA:87,1
LF:31
LH:31
end_of_record
TN:
SF:/home/mtk02470/repos/source/mut_test/example_test_gpt4.cpp
FN:42,_ZN28SwitchExampleTest_Case1_TestD2Ev
FN:42,_ZN28SwitchExampleTest_Case1_Test8TestBodyEv
FN:42,_ZN28SwitchExampleTest_Case1_TestC2Ev
FN:42,_ZN28SwitchExampleTest_Case1_TestD0Ev
FN:46,_ZN28SwitchExampleTest_Case2_TestD0Ev
FN:46,_ZN28SwitchExampleTest_Case2_Test8TestBodyEv
FN:46,_ZN28SwitchExampleTest_Case2_TestC2Ev
FN:46,_ZN28SwitchExampleTest_Case2_TestD2Ev
FN:50,_ZN28SwitchExampleTest_Case3_TestD0Ev
FN:50,_ZN28SwitchExampleTest_Case3_Test8TestBodyEv
FN:50,_ZN28SwitchExampleTest_Case3_TestC2Ev
FN:50,_ZN28SwitchExampleTest_Case3_TestD2Ev
FN:54,_ZN34SwitchExampleTest_DefaultCase_TestD2Ev
FN:54,_ZN34SwitchExampleTest_DefaultCase_TestC2Ev
FN:54,_ZN34SwitchExampleTest_DefaultCase_Test8TestBodyEv
FN:54,_ZN34SwitchExampleTest_DefaultCase_TestD0Ev
FN:61,_ZN35WhileLoopExampleTest_ZeroCount_TestD2Ev
FN:61,_ZN35WhileLoopExampleTest_ZeroCount_TestC2Ev
FN:61,_ZN35WhileLoopExampleTest_ZeroCount_Test8TestBodyEv
FN:61,_ZN35WhileLoopExampleTest_ZeroCount_TestD0Ev
FN:65,_ZN39WhileLoopExampleTest_PositiveCount_TestD0Ev
FN:65,_ZN39WhileLoopExampleTest_PositiveCount_TestD2Ev
FN:65,_ZN39WhileLoopExampleTest_PositiveCount_Test8TestBodyEv
FN:65,_ZN39WhileLoopExampleTest_PositiveCount_TestC2Ev
FN:72,main
FNDA:1,_ZN35WhileLoopExampleTest_ZeroCount_Test8TestBodyEv
FNDA:1,_ZN34SwitchExampleTest_DefaultCase_TestD0Ev
FNDA:1,_ZN35WhileLoopExampleTest_ZeroCount_TestD0Ev
FNDA:1,_ZN28SwitchExampleTest_Case2_TestD2Ev
FNDA:1,_ZN39WhileLoopExampleTest_PositiveCount_TestC2Ev
FNDA:1,_ZN35WhileLoopExampleTest_ZeroCount_TestC2Ev
FNDA:1,_ZN28SwitchExampleTest_Case2_TestC2Ev
FNDA:1,_ZN39WhileLoopExampleTest_PositiveCount_Test8TestBodyEv
FNDA:1,_ZN28SwitchExampleTest_Case1_TestD0Ev
FNDA:1,_ZN28SwitchExampleTest_Case1_Test8TestBodyEv
FNDA:1,_ZN28SwitchExampleTest_Case1_TestC2Ev
FNDA:1,_ZN39WhileLoopExampleTest_PositiveCount_TestD2Ev
FNDA:1,_ZN34SwitchExampleTest_DefaultCase_Test8TestBodyEv
FNDA:1,_ZN28SwitchExampleTest_Case2_Test8TestBodyEv
FNDA:1,_ZN28SwitchExampleTest_Case3_TestD2Ev
FNDA:1,_ZN28SwitchExampleTest_Case3_TestC2Ev
FNDA:1,_ZN28SwitchExampleTest_Case1_TestD2Ev
FNDA:1,_ZN28SwitchExampleTest_Case2_TestD0Ev
FNDA:1,_ZN39WhileLoopExampleTest_PositiveCount_TestD0Ev
FNDA:1,_ZN34SwitchExampleTest_DefaultCase_TestC2Ev
FNDA:1,_ZN34SwitchExampleTest_DefaultCase_TestD2Ev
FNDA:1,main
FNDA:1,_ZN28SwitchExampleTest_Case3_Test8TestBodyEv
FNDA:1,_ZN35WhileLoopExampleTest_ZeroCount_TestD2Ev
FNDA:1,_ZN28SwitchExampleTest_Case3_TestD0Ev
FNF:25
FNH:25
DA:42,4
DA:43,1
DA:44,1
DA:46,4
DA:47,1
DA:48,1
DA:50,4
DA:51,1
DA:52,1
DA:54,4
DA:55,1
DA:56,1
DA:57,1
DA:58,1
DA:61,4
DA:62,1
DA:63,1
DA:65,4
DA:66,1
DA:67,1
DA:68,1
DA:69,1
DA:72,1
DA:73,1
DA:74,1
LF:25
LH:25
end_of_record
